target datalayout = "e-m:e-p270:32:32-p271:32:32-p272:64:64-i64:64-i128:128-f80:128-n8:16:32:64-S128"
target triple = "x86_64-pc-linux-gnu"

%struct.evhttp_uri = type { i32, ptr, ptr, ptr, i32, ptr, ptr, ptr, ptr }

; Function Attrs: nounwind uwtable
define i32 @evhttp_uri_set_port(ptr noundef %0, i32 noundef %1) #0 {
  %3 = alloca i32, align 4
  %4 = alloca ptr, align 8
  %5 = alloca i32, align 4
  store ptr %0, ptr %4, align 8
  store i32 %1, ptr %5, align 4
  %6 = load i32, ptr %5, align 4
  %7 = icmp slt i32 %6, -1
  br i1 %7, label %8, label %9

8:                                                ; preds = %2
  store i32 -1, ptr %3, align 4
  br label %13

9:                                                ; preds = %2
  %10 = load i32, ptr %5, align 4
  %11 = load ptr, ptr %4, align 8
  %12 = getelementptr inbounds nuw %struct.evhttp_uri, ptr %11, i32 0, i32 4
  store i32 %10, ptr %12, align 8
  store i32 0, ptr %3, align 4
  br label %13

13:                                               ; preds = %9, %8
  %14 = load i32, ptr %3, align 4
  ret i32 %14
}