; Function Attrs: mustprogress nofree norecurse nosync nounwind willreturn memory(argmem: write) uwtable
define range(i32 -1, 1) i32 @evhttp_uri_set_port(ptr noundef writeonly captures(none) %0, i32 noundef %1) local_unnamed_addr #5 {
  %3 = icmp slt i32 %1, -1
  br i1 %3, label %6, label %4

4:                                                ; preds = %2
  %5 = getelementptr inbounds nuw i8, ptr %0, i64 32
  store i32 %1, ptr %5, align 8
  br label %6

6:                                                ; preds = %2, %4
  %.0 = phi i32 [ 0, %4 ], [ -1, %2 ]
  ret i32 %.0
}